target datalayout = "e-m:e-p270:32:32-p271:32:32-p272:64:64-i64:64-i128:128-f80:128-n8:16:32:64-S128"
target triple = "x86_64-pc-linux-gnu"

%struct.ident_t = type { i32, i32, i32, i32, ptr }
%class.QuantNet = type { %"class.ncnn::Net", ptr, ptr, %"class.std::vector", %"class.std::vector.0", %"class.std::vector.0", %"class.std::vector.5", %"class.std::vector.10", i32, %"class.std::vector.10", %"class.std::vector.10", %"class.std::vector.10", %"class.std::vector.10", %"class.std::vector.15", %"class.std::vector.20", %"class.std::vector.20" }
%"class.ncnn::Net" = type { ptr, %"class.ncnn::Option", ptr }
%"class.ncnn::Option" = type { i8, i32, ptr, ptr, i32, i8, i8, i8, i8, i8, i8, i8, i8, i8, i8, i8, i8, i8, i8, i8, i8, i8, i8, i8, i8, i32, i8, i8, i8, i8, i8, i8, i8, i8, i8, i8, i8, i8 }
%"class.std::vector" = type { %"struct.std::_Vector_base" }
%"struct.std::_Vector_base" = type { %"struct.std::_Vector_base<std::vector<std::__cxx11::basic_string<char>>, std::allocator<std::vector<std::__cxx11::basic_string<char>>>>::_Vector_impl" }
%"struct.std::_Vector_base<std::vector<std::__cxx11::basic_string<char>>, std::allocator<std::vector<std::__cxx11::basic_string<char>>>>::_Vector_impl" = type { %"struct.std::_Vector_base<std::vector<std::__cxx11::basic_string<char>>, std::allocator<std::vector<std::__cxx11::basic_string<char>>>>::_Vector_impl_data" }
%"struct.std::_Vector_base<std::vector<std::__cxx11::basic_string<char>>, std::allocator<std::vector<std::__cxx11::basic_string<char>>>>::_Vector_impl_data" = type { ptr, ptr, ptr }
%"class.std::vector.0" = type { %"struct.std::_Vector_base.1" }
%"struct.std::_Vector_base.1" = type { %"struct.std::_Vector_base<std::vector<float>, std::allocator<std::vector<float>>>::_Vector_impl" }
%"struct.std::_Vector_base<std::vector<float>, std::allocator<std::vector<float>>>::_Vector_impl" = type { %"struct.std::_Vector_base<std::vector<float>, std::allocator<std::vector<float>>>::_Vector_impl_data" }
%"struct.std::_Vector_base<std::vector<float>, std::allocator<std::vector<float>>>::_Vector_impl_data" = type { ptr, ptr, ptr }
%"class.std::vector.5" = type { %"struct.std::_Vector_base.6" }
%"struct.std::_Vector_base.6" = type { %"struct.std::_Vector_base<std::vector<int>, std::allocator<std::vector<int>>>::_Vector_impl" }
%"struct.std::_Vector_base<std::vector<int>, std::allocator<std::vector<int>>>::_Vector_impl" = type { %"struct.std::_Vector_base<std::vector<int>, std::allocator<std::vector<int>>>::_Vector_impl_data" }
%"struct.std::_Vector_base<std::vector<int>, std::allocator<std::vector<int>>>::_Vector_impl_data" = type { ptr, ptr, ptr }
%"class.std::vector.10" = type { %"struct.std::_Vector_base.11" }
%"struct.std::_Vector_base.11" = type { %"struct.std::_Vector_base<int, std::allocator<int>>::_Vector_impl" }
%"struct.std::_Vector_base<int, std::allocator<int>>::_Vector_impl" = type { %"struct.std::_Vector_base<int, std::allocator<int>>::_Vector_impl_data" }
%"struct.std::_Vector_base<int, std::allocator<int>>::_Vector_impl_data" = type { ptr, ptr, ptr }
%"class.std::vector.15" = type { %"struct.std::_Vector_base.16" }
%"struct.std::_Vector_base.16" = type { %"struct.std::_Vector_base<QuantBlobStat, std::allocator<QuantBlobStat>>::_Vector_impl" }
%"struct.std::_Vector_base<QuantBlobStat, std::allocator<QuantBlobStat>>::_Vector_impl" = type { %"struct.std::_Vector_base<QuantBlobStat, std::allocator<QuantBlobStat>>::_Vector_impl_data" }
%"struct.std::_Vector_base<QuantBlobStat, std::allocator<QuantBlobStat>>::_Vector_impl_data" = type { ptr, ptr, ptr }
%"class.std::vector.20" = type { %"struct.std::_Vector_base.21" }
%"struct.std::_Vector_base.21" = type { %"struct.std::_Vector_base<ncnn::Mat, std::allocator<ncnn::Mat>>::_Vector_impl" }
%"struct.std::_Vector_base<ncnn::Mat, std::allocator<ncnn::Mat>>::_Vector_impl" = type { %"struct.std::_Vector_base<ncnn::Mat, std::allocator<ncnn::Mat>>::_Vector_impl_data" }
%"struct.std::_Vector_base<ncnn::Mat, std::allocator<ncnn::Mat>>::_Vector_impl_data" = type { ptr, ptr, ptr }
%"class.ncnn::Mat" = type { ptr, ptr, i64, i32, ptr, i32, i32, i32, i32, i32, i64 }
%class.QuantBlobStat = type { float, float, i32, %"class.std::vector.31", %"class.std::vector.36" }
%"class.std::vector.31" = type { %"struct.std::_Vector_base.32" }
%"struct.std::_Vector_base.32" = type { %"struct.std::_Vector_base<unsigned long, std::allocator<unsigned long>>::_Vector_impl" }
%"struct.std::_Vector_base<unsigned long, std::allocator<unsigned long>>::_Vector_impl" = type { %"struct.std::_Vector_base<unsigned long, std::allocator<unsigned long>>::_Vector_impl_data" }
%"struct.std::_Vector_base<unsigned long, std::allocator<unsigned long>>::_Vector_impl_data" = type { ptr, ptr, ptr }
%"class.std::vector.36" = type { %"struct.std::_Vector_base.37" }
%"struct.std::_Vector_base.37" = type { %"struct.std::_Vector_base<float, std::allocator<float>>::_Vector_impl" }
%"struct.std::_Vector_base<float, std::allocator<float>>::_Vector_impl" = type { %"struct.std::_Vector_base<float, std::allocator<float>>::_Vector_impl_data" }
%"struct.std::_Vector_base<float, std::allocator<float>>::_Vector_impl_data" = type { ptr, ptr, ptr }

@1 = private unnamed_addr constant %struct.ident_t { i32 0, i32 514, i32 0, i32 22, ptr @0 }, align 8

; Function Attrs: inlinehint mustprogress nounwind uwtable
define linkonce_odr dso_local noundef double @_ZSt3logIiEN9__gnu_cxx11__enable_ifIXsr12__is_integerIT_EE7__valueEdE6__typeES2_(i32 noundef %0) #4 comdat {
  %2 = alloca i32, align 4
  store i32 %0, ptr %2, align 4, !tbaa !137
  %3 = load i32, ptr %2, align 4, !tbaa !137
  %4 = sitofp i32 %3 to double
  %5 = call double @log(double noundef %4) #16, !tbaa !137
  ret double %5
}

; Function Attrs: alwaysinline mustprogress nounwind uwtable
define linkonce_odr dso_local noundef nonnull align 4 dereferenceable(4) ptr @_ZN4ncnn3MatixEm(ptr noundef nonnull align 8 dereferenceable(72) %0, i64 noundef %1) #7 comdat align 2 {
  %3 = alloca ptr, align 8
  %4 = alloca i64, align 8
  store ptr %0, ptr %3, align 8, !tbaa !131
  store i64 %1, ptr %4, align 8, !tbaa !149
  %5 = load ptr, ptr %3, align 8
  %6 = getelementptr inbounds nuw %"class.ncnn::Mat", ptr %5, i32 0, i32 0
  %7 = load ptr, ptr %6, align 8, !tbaa !139
  %8 = load i64, ptr %4, align 8, !tbaa !149
  %9 = getelementptr inbounds nuw float, ptr %7, i64 %8
  ret ptr %9
}

; Function Attrs: mustprogress nounwind uwtable
define linkonce_odr dso_local noundef nonnull align 8 dereferenceable(72) ptr @_ZNSt6vectorIN4ncnn3MatESaIS1_EEixEm(ptr noundef nonnull align 8 dereferenceable(24) %0, i64 noundef %1) #2 comdat align 2 {
  %3 = alloca ptr, align 8
  %4 = alloca i64, align 8
  store ptr %0, ptr %3, align 8, !tbaa !63
  store i64 %1, ptr %4, align 8, !tbaa !149
  %5 = load ptr, ptr %3, align 8
  %6 = getelementptr inbounds nuw %"struct.std::_Vector_base.21", ptr %5, i32 0, i32 0
  %7 = getelementptr inbounds nuw %"struct.std::_Vector_base<ncnn::Mat, std::allocator<ncnn::Mat>>::_Vector_impl_data", ptr %6, i32 0, i32 0
  %8 = load ptr, ptr %7, align 8, !tbaa !65
  %9 = load i64, ptr %4, align 8, !tbaa !149
  %10 = getelementptr inbounds nuw %"class.ncnn::Mat", ptr %8, i64 %9
  ret ptr %10
}

; Function Attrs: mustprogress uwtable
define internal noundef float @_ZL26compute_aciq_gaussian_clipfii(float noundef %0, i32 noundef %1, i32 noundef %2) #0 {
  %4 = alloca float, align 4
  %5 = alloca i32, align 4
  %6 = alloca i32, align 4
  %7 = alloca [8 x float], align 16
  %8 = alloca double, align 8
  %9 = alloca double, align 8
  store float %0, ptr %4, align 4, !tbaa !254
  store i32 %1, ptr %5, align 4, !tbaa !137
  store i32 %2, ptr %6, align 4, !tbaa !137
  call void @llvm.lifetime.start.p0(i64 32, ptr %7) #16
  call void @llvm.memcpy.p0.p0.i64(ptr align 16 %7, ptr align 16 @__const._ZL26compute_aciq_gaussian_clipfii.alpha_gaussian, i64 32, i1 false)
  call void @llvm.lifetime.start.p0(i64 8, ptr %8) #16
  %10 = call noundef double @_ZSt3logIiEN9__gnu_cxx11__enable_ifIXsr12__is_integerIT_EE7__valueEdE6__typeES2_(i32 noundef 4)
  %11 = fmul double 0x400921FB54442D18, %10
  %12 = call double @sqrt(double noundef %11) #16, !tbaa !137
  %13 = fadd double 1.000000e+00, %12
  %14 = fmul double 1.750000e-01, %13
  store double %14, ptr %8, align 8, !tbaa !386
  call void @llvm.lifetime.start.p0(i64 8, ptr %9) #16
  %15 = load float, ptr %4, align 4, !tbaa !254
  %16 = fmul float %15, 2.000000e+00
  %17 = fpext float %16 to double
  %18 = load double, ptr %8, align 8, !tbaa !386
  %19 = fmul double %17, %18
  %20 = load i32, ptr %5, align 4, !tbaa !137
  %21 = call noundef double @_ZSt3logIiEN9__gnu_cxx11__enable_ifIXsr12__is_integerIT_EE7__valueEdE6__typeES2_(i32 noundef %20)
  %22 = fmul double 2.000000e+00, %21
  %23 = call double @sqrt(double noundef %22) #16, !tbaa !137
  %24 = fdiv double %19, %23
  store double %24, ptr %9, align 8, !tbaa !386
  %25 = load i32, ptr %6, align 4, !tbaa !137
  %26 = sub nsw i32 %25, 1
  %27 = sext i32 %26 to i64
  %28 = getelementptr inbounds [8 x float], ptr %7, i64 0, i64 %27
  %29 = load float, ptr %28, align 4, !tbaa !254
  %30 = fpext float %29 to double
  %31 = load double, ptr %9, align 8, !tbaa !386
  %32 = fmul double %30, %31
  %33 = fptrunc double %32 to float
  call void @llvm.lifetime.end.p0(i64 8, ptr %9) #16
  call void @llvm.lifetime.end.p0(i64 8, ptr %8) #16
  call void @llvm.lifetime.end.p0(i64 32, ptr %7) #16
  ret float %33
}

; Function Attrs: mustprogress nounwind uwtable
define linkonce_odr dso_local noundef nonnull align 8 dereferenceable(64) ptr @_ZNSt6vectorI13QuantBlobStatSaIS0_EEixEm(ptr noundef nonnull align 8 dereferenceable(24) %0, i64 noundef %1) #2 comdat align 2 {
  %3 = alloca ptr, align 8
  %4 = alloca i64, align 8
  store ptr %0, ptr %3, align 8, !tbaa !61
  store i64 %1, ptr %4, align 8, !tbaa !149
  %5 = load ptr, ptr %3, align 8
  %6 = getelementptr inbounds nuw %"struct.std::_Vector_base.16", ptr %5, i32 0, i32 0
  %7 = getelementptr inbounds nuw %"struct.std::_Vector_base<QuantBlobStat, std::allocator<QuantBlobStat>>::_Vector_impl_data", ptr %6, i32 0, i32 0
  %8 = load ptr, ptr %7, align 8, !tbaa !67
  %9 = load i64, ptr %4, align 8, !tbaa !149
  %10 = getelementptr inbounds nuw %class.QuantBlobStat, ptr %8, i64 %9
  ret ptr %10
}

; Function Attrs: alwaysinline norecurse nounwind uwtable
define internal void @_ZN8QuantNet13quantize_ACIQEv.omp_outlined.23(ptr noalias noundef %0, ptr noalias noundef %1, ptr noundef nonnull align 4 dereferenceable(4) %2, ptr noundef %3) #15 personality ptr @__gxx_personality_v0 {
  %5 = alloca ptr, align 8
  %6 = alloca ptr, align 8
  %7 = alloca ptr, align 8
  %8 = alloca ptr, align 8
  %9 = alloca i32, align 4
  %10 = alloca i32, align 4
  %11 = alloca i32, align 4
  %12 = alloca i32, align 4
  %13 = alloca i32, align 4
  %14 = alloca i32, align 4
  %15 = alloca i32, align 4
  %16 = alloca i32, align 4
  %17 = alloca i32, align 4
  %18 = alloca ptr, align 8
  %19 = alloca float, align 4
  store ptr %0, ptr %5, align 8, !tbaa !179
  store ptr %1, ptr %6, align 8, !tbaa !179
  store ptr %2, ptr %7, align 8, !tbaa !179
  store ptr %3, ptr %8, align 8, !tbaa !5
  %20 = load ptr, ptr %7, align 8, !tbaa !179
  %21 = load ptr, ptr %8, align 8, !tbaa !5
  call void @llvm.lifetime.start.p0(i64 4, ptr %9) #16
  call void @llvm.lifetime.start.p0(i64 4, ptr %10) #16
  %22 = load i32, ptr %20, align 4, !tbaa !137
  store i32 %22, ptr %10, align 4, !tbaa !137
  call void @llvm.lifetime.start.p0(i64 4, ptr %11) #16
  %23 = load i32, ptr %10, align 4, !tbaa !137
  %24 = sub nsw i32 %23, 0
  %25 = sdiv i32 %24, 1
  %26 = sub nsw i32 %25, 1
  store i32 %26, ptr %11, align 4, !tbaa !137
  call void @llvm.lifetime.start.p0(i64 4, ptr %12) #16
  store i32 0, ptr %12, align 4, !tbaa !137
  call void @llvm.lifetime.end.p0(i64 4, ptr %12) #16
  %27 = load i32, ptr %10, align 4, !tbaa !137
  %28 = icmp slt i32 0, %27
  br i1 %28, label %29, label %89

29:                                               ; preds = %4
  call void @llvm.lifetime.start.p0(i64 4, ptr %13) #16
  store i32 0, ptr %13, align 4, !tbaa !137
  call void @llvm.lifetime.start.p0(i64 4, ptr %14) #16
  %30 = load i32, ptr %11, align 4, !tbaa !137
  store i32 %30, ptr %14, align 4, !tbaa !137
  call void @llvm.lifetime.start.p0(i64 4, ptr %15) #16
  store i32 1, ptr %15, align 4, !tbaa !137
  call void @llvm.lifetime.start.p0(i64 4, ptr %16) #16
  store i32 0, ptr %16, align 4, !tbaa !137
  call void @llvm.lifetime.start.p0(i64 4, ptr %17) #16
  %31 = load ptr, ptr %5, align 8
  %32 = load i32, ptr %31, align 4, !tbaa !137
  call void @__kmpc_for_static_init_4(ptr @1, i32 %32, i32 34, ptr %16, ptr %13, ptr %14, ptr %15, i32 1, i32 1)
  %33 = load i32, ptr %14, align 4, !tbaa !137
  %34 = load i32, ptr %11, align 4, !tbaa !137
  %35 = icmp sgt i32 %33, %34
  br i1 %35, label %36, label %38

36:                                               ; preds = %29
  %37 = load i32, ptr %11, align 4, !tbaa !137
  br label %40

38:                                               ; preds = %29
  %39 = load i32, ptr %14, align 4, !tbaa !137
  br label %40

40:                                               ; preds = %38, %36
  %41 = phi i32 [ %37, %36 ], [ %39, %38 ]
  store i32 %41, ptr %14, align 4, !tbaa !137
  %42 = load i32, ptr %13, align 4, !tbaa !137
  store i32 %42, ptr %9, align 4, !tbaa !137
  br label %43

43:                                               ; preds = %82, %40
  %44 = load i32, ptr %9, align 4, !tbaa !137
  %45 = load i32, ptr %14, align 4, !tbaa !137
  %46 = icmp sle i32 %44, %45
  br i1 %46, label %48, label %47

47:                                               ; preds = %43
  br label %85

48:                                               ; preds = %43
  %49 = load i32, ptr %9, align 4, !tbaa !137
  %50 = mul nsw i32 %49, 1
  %51 = add nsw i32 0, %50
  store i32 %51, ptr %17, align 4, !tbaa !137
  call void @llvm.lifetime.start.p0(i64 8, ptr %18) #16
  %52 = getelementptr inbounds nuw %class.QuantNet, ptr %21, i32 0, i32 13
  %53 = load i32, ptr %17, align 4, !tbaa !137
  %54 = sext i32 %53 to i64
  %55 = call noundef nonnull align 8 dereferenceable(64) ptr @_ZNSt6vectorI13QuantBlobStatSaIS0_EEixEm(ptr noundef nonnull align 8 dereferenceable(24) %52, i64 noundef %54) #16
  store ptr %55, ptr %18, align 8, !tbaa !150
  %56 = load ptr, ptr %18, align 8, !tbaa !150
  %57 = getelementptr inbounds nuw %class.QuantBlobStat, ptr %56, i32 0, i32 1
  %58 = load float, ptr %57, align 4, !tbaa !239
  %59 = load ptr, ptr %18, align 8, !tbaa !150
  %60 = getelementptr inbounds nuw %class.QuantBlobStat, ptr %59, i32 0, i32 2
  %61 = load i32, ptr %60, align 8, !tbaa !240
  %62 = invoke noundef float @_ZL26compute_aciq_gaussian_clipfii(float noundef %58, i32 noundef %61, i32 noundef 8)
          to label %63 unwind label %90

63:                                               ; preds = %48
  %64 = load ptr, ptr %18, align 8, !tbaa !150
  %65 = getelementptr inbounds nuw %class.QuantBlobStat, ptr %64, i32 0, i32 0
  store float %62, ptr %65, align 8, !tbaa !230
  call void @llvm.lifetime.start.p0(i64 4, ptr %19) #16
  %66 = load ptr, ptr %18, align 8, !tbaa !150
  %67 = getelementptr inbounds nuw %class.QuantBlobStat, ptr %66, i32 0, i32 0
  %68 = load float, ptr %67, align 8, !tbaa !230
  %69 = fdiv float 1.270000e+02, %68
  store float %69, ptr %19, align 4, !tbaa !254
  %70 = getelementptr inbounds nuw %class.QuantNet, ptr %21, i32 0, i32 15
  %71 = load i32, ptr %17, align 4, !tbaa !137
  %72 = sext i32 %71 to i64
  %73 = call noundef nonnull align 8 dereferenceable(72) ptr @_ZNSt6vectorIN4ncnn3MatESaIS1_EEixEm(ptr noundef nonnull align 8 dereferenceable(24) %70, i64 noundef %72) #16
  invoke void @_ZN4ncnn3Mat6createEimPNS_9AllocatorE(ptr noundef nonnull align 8 dereferenceable(72) %73, i32 noundef 1, i64 noundef 4, ptr noundef null)
          to label %74 unwind label %90

74:                                               ; preds = %63
  %75 = load float, ptr %19, align 4, !tbaa !254
  %76 = getelementptr inbounds nuw %class.QuantNet, ptr %21, i32 0, i32 15
  %77 = load i32, ptr %17, align 4, !tbaa !137
  %78 = sext i32 %77 to i64
  %79 = call noundef nonnull align 8 dereferenceable(72) ptr @_ZNSt6vectorIN4ncnn3MatESaIS1_EEixEm(ptr noundef nonnull align 8 dereferenceable(24) %76, i64 noundef %78) #16
  %80 = call noundef nonnull align 4 dereferenceable(4) ptr @_ZN4ncnn3MatixEm(ptr noundef nonnull align 8 dereferenceable(72) %79, i64 noundef 0)
  store float %75, ptr %80, align 4, !tbaa !254
  call void @llvm.lifetime.end.p0(i64 4, ptr %19) #16
  call void @llvm.lifetime.end.p0(i64 8, ptr %18) #16
  br label %81

81:                                               ; preds = %74
  br label %82

82:                                               ; preds = %81
  %83 = load i32, ptr %9, align 4, !tbaa !137
  %84 = add nsw i32 %83, 1
  store i32 %84, ptr %9, align 4, !tbaa !137
  br label %43

85:                                               ; preds = %47
  br label %86

86:                                               ; preds = %85
  %87 = load ptr, ptr %5, align 8
  %88 = load i32, ptr %87, align 4, !tbaa !137
  call void @__kmpc_for_static_fini(ptr @1, i32 %88)
  call void @llvm.lifetime.end.p0(i64 4, ptr %17) #16
  call void @llvm.lifetime.end.p0(i64 4, ptr %16) #16
  call void @llvm.lifetime.end.p0(i64 4, ptr %15) #16
  call void @llvm.lifetime.end.p0(i64 4, ptr %14) #16
  call void @llvm.lifetime.end.p0(i64 4, ptr %13) #16
  br label %89

89:                                               ; preds = %86, %4
  call void @llvm.lifetime.end.p0(i64 4, ptr %11) #16
  call void @llvm.lifetime.end.p0(i64 4, ptr %10) #16
  call void @llvm.lifetime.end.p0(i64 4, ptr %9) #16
  ret void

90:                                               ; preds = %63, %48
  %91 = landingpad { ptr, i32 }
          catch ptr null
  %92 = extractvalue { ptr, i32 } %91, 0
  call void @__clang_call_terminate(ptr %92) #22
  unreachable
}