; Function Attrs: alwaysinline norecurse nounwind uwtable
define internal void @_ZN8QuantNet13quantize_ACIQEv.omp_outlined.23(ptr noalias noundef readonly captures(none) %0, ptr noalias readnone captures(none) %1, ptr noundef nonnull readonly align 4 captures(none) dereferenceable(4) %2, ptr noundef readonly captures(none) %3) #15 personality ptr @__gxx_personality_v0 {
  %5 = alloca i32, align 4
  %6 = alloca i32, align 4
  %7 = alloca i32, align 4
  %8 = alloca i32, align 4
  %9 = load i32, ptr %2, align 4, !tbaa !101
  %10 = icmp sgt i32 %9, 0
  br i1 %10, label %11, label %46

11:                                               ; preds = %4
  %12 = add nsw i32 %9, -1
  call void @llvm.lifetime.start.p0(i64 4, ptr nonnull %5) #16
  store i32 0, ptr %5, align 4, !tbaa !101
  call void @llvm.lifetime.start.p0(i64 4, ptr nonnull %6) #16
  store i32 %12, ptr %6, align 4, !tbaa !101
  call void @llvm.lifetime.start.p0(i64 4, ptr nonnull %7) #16
  store i32 1, ptr %7, align 4, !tbaa !101
  call void @llvm.lifetime.start.p0(i64 4, ptr nonnull %8) #16
  store i32 0, ptr %8, align 4, !tbaa !101
  %13 = load i32, ptr %0, align 4, !tbaa !101
  call void @__kmpc_for_static_init_4(ptr nonnull @1, i32 %13, i32 34, ptr nonnull %8, ptr nonnull %5, ptr nonnull %6, ptr nonnull %7, i32 1, i32 1)
  %14 = load i32, ptr %6, align 4, !tbaa !101
  %15 = call i32 @llvm.smin.i32(i32 %14, i32 %12)
  store i32 %15, ptr %6, align 4, !tbaa !101
  %16 = load i32, ptr %5, align 4, !tbaa !101
  %.not19 = icmp sgt i32 %16, %15
  br i1 %.not19, label %._crit_edge, label %.lr.ph

.lr.ph:                                           ; preds = %11
  %17 = getelementptr inbounds nuw i8, ptr %3, i64 320
  %18 = getelementptr inbounds nuw i8, ptr %3, i64 368
  %19 = sext i32 %16 to i64
  %.pre = load ptr, ptr %18, align 8, !tbaa !53
  br label %20

20:                                               ; preds = %.lr.ph, %39
  %21 = phi ptr [ %.pre, %.lr.ph ], [ %41, %39 ]
  %indvars.iv = phi i64 [ %19, %.lr.ph ], [ %indvars.iv.next, %39 ]
  %22 = load ptr, ptr %17, align 8, !tbaa !63
  %23 = getelementptr inbounds nuw %class.QuantBlobStat, ptr %22, i64 %indvars.iv
  %24 = getelementptr inbounds nuw i8, ptr %23, i64 4
  %25 = load float, ptr %24, align 4, !tbaa !114
  %26 = getelementptr inbounds nuw i8, ptr %23, i64 8
  %27 = load i32, ptr %26, align 8, !tbaa !115
  %28 = fmul float %25, 2.000000e+00
  %29 = fpext float %28 to double
  %30 = fmul double %29, 0x3FE149630C3D2904
  %31 = sitofp i32 %27 to double
  %32 = call noundef double @log(double noundef %31) #16, !tbaa !101
  %33 = fmul double %32, 2.000000e+00
  %34 = call double @sqrt(double noundef %33) #16, !tbaa !101
  %35 = fdiv double %30, %34
  %36 = fmul double %35, 0x400F646DA0000000
  %37 = fptrunc double %36 to float
  store float %37, ptr %23, align 8, !tbaa !105
  %38 = getelementptr inbounds nuw %"class.ncnn::Mat", ptr %21, i64 %indvars.iv
  invoke void @_ZN4ncnn3Mat6createEimPNS_9AllocatorE(ptr noundef nonnull align 8 dereferenceable(72) %38, i32 noundef 1, i64 noundef 4, ptr noundef null)
          to label %39 unwind label %47

39:                                               ; preds = %20
  %40 = fdiv float 1.270000e+02, %37
  %41 = load ptr, ptr %18, align 8, !tbaa !53
  %42 = getelementptr inbounds nuw %"class.ncnn::Mat", ptr %41, i64 %indvars.iv
  %43 = load ptr, ptr %42, align 8, !tbaa !59
  store float %40, ptr %43, align 4, !tbaa !141
  %indvars.iv.next = add nsw i64 %indvars.iv, 1
  %44 = load i32, ptr %6, align 4, !tbaa !101
  %45 = sext i32 %44 to i64
  %.not.not = icmp slt i64 %indvars.iv, %45
  br i1 %.not.not, label %20, label %._crit_edge

._crit_edge:                                      ; preds = %39, %11
  call void @__kmpc_for_static_fini(ptr nonnull @1, i32 %13)
  call void @llvm.lifetime.end.p0(i64 4, ptr nonnull %8) #16
  call void @llvm.lifetime.end.p0(i64 4, ptr nonnull %7) #16
  call void @llvm.lifetime.end.p0(i64 4, ptr nonnull %6) #16
  call void @llvm.lifetime.end.p0(i64 4, ptr nonnull %5) #16
  br label %46

46:                                               ; preds = %._crit_edge, %4
  ret void

47:                                               ; preds = %20
  %48 = landingpad { ptr, i32 }
          catch ptr null
  %49 = extractvalue { ptr, i32 } %48, 0
  call void @__clang_call_terminate(ptr %49) #33
  unreachable
}